target datalayout = "e-m:e-p270:32:32-p271:32:32-p272:64:64-i64:64-i128:128-f80:128-n8:16:32:64-S128"
target triple = "x86_64-pc-linux-gnu"

%struct.UEnumeration = type { ptr, ptr, ptr, ptr, ptr, ptr, ptr }
%struct.Enumerator = type { ptr, i16, i16, ptr }

; Function Attrs: inlinehint mustprogress nounwind uwtable
define internal noundef signext i8 @_ZL9U_FAILURE10UErrorCode(i32 noundef %0) #1 {
  %2 = alloca i32, align 4
  store i32 %0, ptr %2, align 4, !tbaa !16
  %3 = load i32, ptr %2, align 4, !tbaa !16
  %4 = icmp sgt i32 %3, 0
  %5 = zext i1 %4 to i8
  ret i8 %5
}

; Function Attrs: mustprogress nounwind uwtable
define internal void @_ZL22ucnvsel_reset_iteratorP12UEnumerationP10UErrorCode(ptr noundef %0, ptr noundef %1) #4 {
  %3 = alloca ptr, align 8
  %4 = alloca ptr, align 8
  store ptr %0, ptr %3, align 8, !tbaa !107
  store ptr %1, ptr %4, align 8, !tbaa !15
  %5 = load ptr, ptr %4, align 8, !tbaa !15
  %6 = load i32, ptr %5, align 4, !tbaa !16
  %7 = call noundef signext i8 @_ZL9U_FAILURE10UErrorCode(i32 noundef %6)
  %8 = icmp ne i8 %7, 0
  br i1 %8, label %9, label %10

9:                                                ; preds = %2
  br label %15

10:                                               ; preds = %2
  %11 = load ptr, ptr %3, align 8, !tbaa !107
  %12 = getelementptr inbounds nuw %struct.UEnumeration, ptr %11, i32 0, i32 1
  %13 = load ptr, ptr %12, align 8, !tbaa !91
  %14 = getelementptr inbounds nuw %struct.Enumerator, ptr %13, i32 0, i32 2
  store i16 0, ptr %14, align 2, !tbaa !86
  br label %15

15:                                               ; preds = %10, %9
  ret void
}